target datalayout = "e-m:e-p270:32:32-p271:32:32-p272:64:64-i64:64-i128:128-f80:128-n8:16:32:64-S128"
target triple = "x86_64-pc-linux-gnu"

%class.AttachOperation = type <{ ptr, [17 x i8], [3 x [1025 x i8]], [4 x i8] }>
%class.VM_PrintThreads = type <{ %class.VM_Operation, ptr, i8, i8, i8, [5 x i8] }>
%class.VM_Operation = type { ptr, ptr }
%class.VM_FindDeadlocks = type { %class.VM_Operation, i8, ptr, ptr, %class.ThreadsListSetter }
%class.ThreadsListSetter = type { %class.SafeThreadsListPtr }
%class.SafeThreadsListPtr = type <{ ptr, ptr, ptr, i8, i8, [6 x i8] }>

@_ZN6Thread12_thr_currentE = external thread_local global ptr, align 8
@_ZTV15VM_PrintThreads = external unnamed_addr constant { [12 x ptr] }, align 8
@_ZTV12VM_Operation = external unnamed_addr constant { [12 x ptr] }, align 8
@_ZTV16VM_FindDeadlocks = external unnamed_addr constant { [12 x ptr] }, align 8

; Function Attrs: mustprogress nounwind uwtable
define linkonce_odr hidden noundef ptr @_ZN6Thread15current_or_nullEv() #1 comdat align 2 {
  %1 = call align 8 ptr @llvm.threadlocal.address.p0(ptr align 8 @_ZN6Thread12_thr_currentE)
  %2 = load ptr, ptr %1, align 8
  ret ptr %2
}

; Function Attrs: mustprogress nounwind uwtable
define linkonce_odr hidden void @_ZN18SafeThreadsListPtrC2EP6Threadb(ptr noundef nonnull align 8 dereferenceable(26) %0, ptr noundef %1, i1 noundef zeroext %2) unnamed_addr #1 comdat align 2 {
  %4 = alloca ptr, align 8
  %5 = alloca ptr, align 8
  %6 = alloca i8, align 1
  store ptr %0, ptr %4, align 8
  store ptr %1, ptr %5, align 8
  %7 = zext i1 %2 to i8
  store i8 %7, ptr %6, align 1
  %8 = load ptr, ptr %4, align 8
  %9 = getelementptr inbounds %class.SafeThreadsListPtr, ptr %8, i32 0, i32 0
  store ptr null, ptr %9, align 8
  %10 = getelementptr inbounds %class.SafeThreadsListPtr, ptr %8, i32 0, i32 1
  %11 = load ptr, ptr %5, align 8
  store ptr %11, ptr %10, align 8
  %12 = getelementptr inbounds %class.SafeThreadsListPtr, ptr %8, i32 0, i32 2
  store ptr null, ptr %12, align 8
  %13 = getelementptr inbounds %class.SafeThreadsListPtr, ptr %8, i32 0, i32 3
  store i8 0, ptr %13, align 8
  %14 = getelementptr inbounds %class.SafeThreadsListPtr, ptr %8, i32 0, i32 4
  store i8 0, ptr %14, align 1
  %15 = load i8, ptr %6, align 1
  %16 = trunc i8 %15 to i1
  br i1 %16, label %17, label %18

17:                                               ; preds = %3
  call void @_ZN18SafeThreadsListPtr19acquire_stable_listEv(ptr noundef nonnull align 8 dereferenceable(26) %8)
  br label %18

18:                                               ; preds = %17, %3
  ret void
}

; Function Attrs: mustprogress nounwind uwtable
define linkonce_odr hidden noundef ptr @_ZN6Thread7currentEv() #1 comdat align 2 {
  %1 = alloca ptr, align 8
  %2 = call noundef ptr @_ZN6Thread15current_or_nullEv()
  store ptr %2, ptr %1, align 8
  %3 = load ptr, ptr %1, align 8
  ret ptr %3
}

; Function Attrs: mustprogress nounwind uwtable
define linkonce_odr hidden void @_ZN17ThreadsListSetterC2Ev(ptr noundef nonnull align 8 dereferenceable(32) %0) unnamed_addr #1 comdat align 2 {
  %2 = alloca ptr, align 8
  store ptr %0, ptr %2, align 8
  %3 = load ptr, ptr %2, align 8
  %4 = getelementptr inbounds %class.ThreadsListSetter, ptr %3, i32 0, i32 0
  %5 = call noundef ptr @_ZN6Thread7currentEv()
  call void @_ZN18SafeThreadsListPtrC2EP6Threadb(ptr noundef nonnull align 8 dereferenceable(26) %4, ptr noundef %5, i1 noundef zeroext false)
  ret void
}

; Function Attrs: mustprogress nounwind uwtable
define linkonce_odr hidden void @_ZN12VM_OperationC2Ev(ptr noundef nonnull align 8 dereferenceable(16) %0) unnamed_addr #1 comdat align 2 {
  %2 = alloca ptr, align 8
  store ptr %0, ptr %2, align 8
  %3 = load ptr, ptr %2, align 8
  store ptr getelementptr inbounds inrange(-16, 80) ({ [12 x ptr] }, ptr @_ZTV12VM_Operation, i32 0, i32 0, i32 2), ptr %3, align 8
  %4 = getelementptr inbounds %class.VM_Operation, ptr %3, i32 0, i32 1
  store ptr null, ptr %4, align 8
  ret void
}

; Function Attrs: mustprogress nounwind uwtable
define linkonce_odr hidden void @_ZN16VM_FindDeadlocksC2EP12outputStream(ptr noundef nonnull align 8 dereferenceable(72) %0, ptr noundef %1) unnamed_addr #1 comdat align 2 {
  %3 = alloca ptr, align 8
  %4 = alloca ptr, align 8
  store ptr %0, ptr %3, align 8
  store ptr %1, ptr %4, align 8
  %5 = load ptr, ptr %3, align 8
  call void @_ZN12VM_OperationC2Ev(ptr noundef nonnull align 8 dereferenceable(16) %5)
  store ptr getelementptr inbounds inrange(-16, 80) ({ [12 x ptr] }, ptr @_ZTV16VM_FindDeadlocks, i32 0, i32 0, i32 2), ptr %5, align 8
  %6 = getelementptr inbounds %class.VM_FindDeadlocks, ptr %5, i32 0, i32 1
  store i8 1, ptr %6, align 8
  %7 = getelementptr inbounds %class.VM_FindDeadlocks, ptr %5, i32 0, i32 2
  store ptr null, ptr %7, align 8
  %8 = getelementptr inbounds %class.VM_FindDeadlocks, ptr %5, i32 0, i32 3
  %9 = load ptr, ptr %4, align 8
  store ptr %9, ptr %8, align 8
  %10 = getelementptr inbounds %class.VM_FindDeadlocks, ptr %5, i32 0, i32 4
  call void @_ZN17ThreadsListSetterC2Ev(ptr noundef nonnull align 8 dereferenceable(32) %10)
  ret void
}

; Function Attrs: mustprogress nounwind uwtable
define linkonce_odr hidden void @_ZN15VM_PrintThreadsC2EP12outputStreambbb(ptr noundef nonnull align 8 dereferenceable(27) %0, ptr noundef %1, i1 noundef zeroext %2, i1 noundef zeroext %3, i1 noundef zeroext %4) unnamed_addr #1 comdat align 2 {
  %6 = alloca ptr, align 8
  %7 = alloca ptr, align 8
  %8 = alloca i8, align 1
  %9 = alloca i8, align 1
  %10 = alloca i8, align 1
  store ptr %0, ptr %6, align 8
  store ptr %1, ptr %7, align 8
  %11 = zext i1 %2 to i8
  store i8 %11, ptr %8, align 1
  %12 = zext i1 %3 to i8
  store i8 %12, ptr %9, align 1
  %13 = zext i1 %4 to i8
  store i8 %13, ptr %10, align 1
  %14 = load ptr, ptr %6, align 8
  call void @_ZN12VM_OperationC2Ev(ptr noundef nonnull align 8 dereferenceable(16) %14)
  store ptr getelementptr inbounds inrange(-16, 80) ({ [12 x ptr] }, ptr @_ZTV15VM_PrintThreads, i32 0, i32 0, i32 2), ptr %14, align 8
  %15 = getelementptr inbounds %class.VM_PrintThreads, ptr %14, i32 0, i32 1
  %16 = load ptr, ptr %7, align 8
  store ptr %16, ptr %15, align 8
  %17 = getelementptr inbounds %class.VM_PrintThreads, ptr %14, i32 0, i32 2
  %18 = load i8, ptr %8, align 1
  %19 = trunc i8 %18 to i1
  %20 = zext i1 %19 to i8
  store i8 %20, ptr %17, align 8
  %21 = getelementptr inbounds %class.VM_PrintThreads, ptr %14, i32 0, i32 3
  %22 = load i8, ptr %9, align 1
  %23 = trunc i8 %22 to i1
  %24 = zext i1 %23 to i8
  store i8 %24, ptr %21, align 1
  %25 = getelementptr inbounds %class.VM_PrintThreads, ptr %14, i32 0, i32 4
  %26 = load i8, ptr %10, align 1
  %27 = trunc i8 %26 to i1
  %28 = zext i1 %27 to i8
  store i8 %28, ptr %25, align 2
  ret void
}

; Function Attrs: mustprogress nounwind uwtable
define linkonce_odr hidden noundef ptr @_ZNK15AttachOperation3argEi(ptr noundef nonnull align 8 dereferenceable(3100) %0, i32 noundef %1) #1 comdat align 2 {
  %3 = alloca ptr, align 8
  %4 = alloca i32, align 4
  store ptr %0, ptr %3, align 8
  store i32 %1, ptr %4, align 4
  %5 = load ptr, ptr %3, align 8
  %6 = getelementptr inbounds %class.AttachOperation, ptr %5, i32 0, i32 2
  %7 = load i32, ptr %4, align 4
  %8 = sext i32 %7 to i64
  %9 = getelementptr inbounds [3 x [1025 x i8]], ptr %6, i64 0, i64 %8
  %10 = getelementptr inbounds [1025 x i8], ptr %9, i64 0, i64 0
  ret ptr %10
}

; Function Attrs: mustprogress nounwind uwtable
define internal noundef i32 @_ZL11thread_dumpP15AttachOperationP12outputStream(ptr noundef %0, ptr noundef %1) #1 {
  %3 = alloca ptr, align 8
  %4 = alloca ptr, align 8
  %5 = alloca i8, align 1
  %6 = alloca i8, align 1
  %7 = alloca i32, align 4
  %8 = alloca %class.VM_PrintThreads, align 8
  %9 = alloca %class.VM_FindDeadlocks, align 8
  store ptr %0, ptr %3, align 8
  store ptr %1, ptr %4, align 8
  store i8 0, ptr %5, align 1
  store i8 0, ptr %6, align 1
  %10 = load ptr, ptr %3, align 8
  %11 = call noundef ptr @_ZNK15AttachOperation3argEi(ptr noundef nonnull align 8 dereferenceable(3100) %10, i32 noundef 0)
  %12 = icmp ne ptr %11, null
  br i1 %12, label %13, label %48

13:                                               ; preds = %2
  store i32 0, ptr %7, align 4
  br label %14

14:                                               ; preds = %44, %13
  %15 = load ptr, ptr %3, align 8
  %16 = call noundef ptr @_ZNK15AttachOperation3argEi(ptr noundef nonnull align 8 dereferenceable(3100) %15, i32 noundef 0)
  %17 = load i32, ptr %7, align 4
  %18 = sext i32 %17 to i64
  %19 = getelementptr inbounds i8, ptr %16, i64 %18
  %20 = load i8, ptr %19, align 1
  %21 = sext i8 %20 to i32
  %22 = icmp ne i32 %21, 0
  br i1 %22, label %23, label %47

23:                                               ; preds = %14
  %24 = load ptr, ptr %3, align 8
  %25 = call noundef ptr @_ZNK15AttachOperation3argEi(ptr noundef nonnull align 8 dereferenceable(3100) %24, i32 noundef 0)
  %26 = load i32, ptr %7, align 4
  %27 = sext i32 %26 to i64
  %28 = getelementptr inbounds i8, ptr %25, i64 %27
  %29 = load i8, ptr %28, align 1
  %30 = sext i8 %29 to i32
  %31 = icmp eq i32 %30, 108
  br i1 %31, label %32, label %33

32:                                               ; preds = %23
  store i8 1, ptr %5, align 1
  br label %33

33:                                               ; preds = %32, %23
  %34 = load ptr, ptr %3, align 8
  %35 = call noundef ptr @_ZNK15AttachOperation3argEi(ptr noundef nonnull align 8 dereferenceable(3100) %34, i32 noundef 0)
  %36 = load i32, ptr %7, align 4
  %37 = sext i32 %36 to i64
  %38 = getelementptr inbounds i8, ptr %35, i64 %37
  %39 = load i8, ptr %38, align 1
  %40 = sext i8 %39 to i32
  %41 = icmp eq i32 %40, 101
  br i1 %41, label %42, label %43

42:                                               ; preds = %33
  store i8 1, ptr %6, align 1
  br label %43

43:                                               ; preds = %42, %33
  br label %44

44:                                               ; preds = %43
  %45 = load i32, ptr %7, align 4
  %46 = add nsw i32 %45, 1
  store i32 %46, ptr %7, align 4
  br label %14, !llvm.loop !9

47:                                               ; preds = %14
  br label %48

48:                                               ; preds = %47, %2
  %49 = load ptr, ptr %4, align 8
  %50 = load i8, ptr %5, align 1
  %51 = trunc i8 %50 to i1
  %52 = load i8, ptr %6, align 1
  %53 = trunc i8 %52 to i1
  call void @_ZN15VM_PrintThreadsC2EP12outputStreambbb(ptr noundef nonnull align 8 dereferenceable(27) %8, ptr noundef %49, i1 noundef zeroext %51, i1 noundef zeroext %53, i1 noundef zeroext true)
  call void @_ZN8VMThread7executeEP12VM_Operation(ptr noundef %8)
  %54 = load ptr, ptr %4, align 8
  call void @_ZN16VM_FindDeadlocksC2EP12outputStream(ptr noundef nonnull align 8 dereferenceable(72) %9, ptr noundef %54)
  call void @_ZN8VMThread7executeEP12VM_Operation(ptr noundef %9)
  call void @_ZN16VM_FindDeadlocksD1Ev(ptr noundef nonnull align 8 dereferenceable(72) %9) #9
  ret i32 0
}