; Function Attrs: mustprogress nounwind uwtable
define internal noundef i32 @_ZL11thread_dumpP15AttachOperationP12outputStream(ptr nocapture noundef readonly %0, ptr noundef %1) #0 {
  %3 = alloca %class.VM_PrintThreads, align 8
  %4 = alloca %class.VM_FindDeadlocks, align 8
  %5 = getelementptr inbounds i8, ptr %0, i64 25
  %6 = load i8, ptr %5, align 1
  %.not1516 = icmp eq i8 %6, 0
  br i1 %.not1516, label %._crit_edge, label %.lr.ph

.lr.ph:                                           ; preds = %2, %.lr.ph
  %indvars.iv = phi i64 [ %indvars.iv.next, %.lr.ph ], [ 0, %2 ]
  %7 = phi i8 [ %11, %.lr.ph ], [ %6, %2 ]
  %.01118 = phi i8 [ %.1, %.lr.ph ], [ 0, %2 ]
  %.01217 = phi i8 [ %spec.select, %.lr.ph ], [ 0, %2 ]
  %8 = icmp eq i8 %7, 108
  %spec.select = select i1 %8, i8 1, i8 %.01217
  %9 = icmp eq i8 %7, 101
  %.1 = select i1 %9, i8 1, i8 %.01118
  %indvars.iv.next = add nuw nsw i64 %indvars.iv, 1
  %10 = getelementptr inbounds i8, ptr %5, i64 %indvars.iv.next
  %11 = load i8, ptr %10, align 1
  %.not15 = icmp eq i8 %11, 0
  br i1 %.not15, label %._crit_edge.loopexit, label %.lr.ph, !llvm.loop !9

._crit_edge.loopexit:                             ; preds = %.lr.ph
  %12 = and i8 %spec.select, 1
  %13 = and i8 %.1, 1
  br label %._crit_edge

._crit_edge:                                      ; preds = %._crit_edge.loopexit, %2
  %.012.lcssa = phi i8 [ 0, %2 ], [ %12, %._crit_edge.loopexit ]
  %.011.lcssa = phi i8 [ 0, %2 ], [ %13, %._crit_edge.loopexit ]
  %14 = getelementptr inbounds i8, ptr %3, i64 8
  store ptr null, ptr %14, align 8
  store ptr getelementptr inbounds inrange(-16, 80) (i8, ptr @_ZTV15VM_PrintThreads, i64 16), ptr %3, align 8
  %15 = getelementptr inbounds i8, ptr %3, i64 16
  store ptr %1, ptr %15, align 8
  %16 = getelementptr inbounds i8, ptr %3, i64 24
  store i8 %.012.lcssa, ptr %16, align 8
  %17 = getelementptr inbounds i8, ptr %3, i64 25
  store i8 %.011.lcssa, ptr %17, align 1
  %18 = getelementptr inbounds i8, ptr %3, i64 26
  store i8 1, ptr %18, align 2
  call void @_ZN8VMThread7executeEP12VM_Operation(ptr noundef nonnull %3) #8
  %19 = getelementptr inbounds i8, ptr %4, i64 8
  store ptr null, ptr %19, align 8
  store ptr getelementptr inbounds inrange(-16, 80) (i8, ptr @_ZTV16VM_FindDeadlocks, i64 16), ptr %4, align 8
  %20 = getelementptr inbounds i8, ptr %4, i64 16
  store i8 1, ptr %20, align 8
  %21 = getelementptr inbounds i8, ptr %4, i64 24
  store ptr null, ptr %21, align 8
  %22 = getelementptr inbounds i8, ptr %4, i64 32
  store ptr %1, ptr %22, align 8
  %23 = getelementptr inbounds i8, ptr %4, i64 40
  %24 = call align 8 ptr @llvm.threadlocal.address.p0(ptr align 8 @_ZN6Thread12_thr_currentE)
  %25 = load ptr, ptr %24, align 8
  store ptr null, ptr %23, align 8
  %26 = getelementptr inbounds i8, ptr %4, i64 48
  store ptr %25, ptr %26, align 8
  %27 = getelementptr inbounds i8, ptr %4, i64 56
  store ptr null, ptr %27, align 8
  %28 = getelementptr inbounds i8, ptr %4, i64 64
  store i8 0, ptr %28, align 8
  %29 = getelementptr inbounds i8, ptr %4, i64 65
  store i8 0, ptr %29, align 1
  call void @_ZN8VMThread7executeEP12VM_Operation(ptr noundef nonnull %4) #8
  call void @_ZN16VM_FindDeadlocksD1Ev(ptr noundef nonnull align 8 dereferenceable(72) %4) #8
  ret i32 0
}